target datalayout = "e-m:e-p270:32:32-p271:32:32-p272:64:64-i64:64-i128:128-f80:128-n8:16:32:64-S128"
target triple = "x86_64-pc-linux-gnu"

%struct.OSQPVectorf_ = type { ptr, i64 }

; Function Attrs: nounwind uwtable
define ptr @OSQPVectorf_calloc(i64 noundef %0) #0 {
  %2 = alloca i64, align 8
  %3 = alloca ptr, align 8
  store i64 %0, ptr %2, align 8
  %4 = call noalias ptr @malloc(i64 noundef 16) #5
  store ptr %4, ptr %3, align 8
  %5 = load ptr, ptr %3, align 8
  %6 = icmp ne ptr %5, null
  br i1 %6, label %7, label %29

7:                                                ; preds = %1
  %8 = load i64, ptr %2, align 8
  %9 = load ptr, ptr %3, align 8
  %10 = getelementptr inbounds %struct.OSQPVectorf_, ptr %9, i32 0, i32 1
  store i64 %8, ptr %10, align 8
  %11 = load i64, ptr %2, align 8
  %12 = icmp ne i64 %11, 0
  br i1 %12, label %13, label %25

13:                                               ; preds = %7
  %14 = load i64, ptr %2, align 8
  %15 = call noalias ptr @calloc(i64 noundef %14, i64 noundef 8) #7
  %16 = load ptr, ptr %3, align 8
  %17 = getelementptr inbounds %struct.OSQPVectorf_, ptr %16, i32 0, i32 0
  store ptr %15, ptr %17, align 8
  %18 = load ptr, ptr %3, align 8
  %19 = getelementptr inbounds %struct.OSQPVectorf_, ptr %18, i32 0, i32 0
  %20 = load ptr, ptr %19, align 8
  %21 = icmp ne ptr %20, null
  br i1 %21, label %24, label %22

22:                                               ; preds = %13
  %23 = load ptr, ptr %3, align 8
  call void @free(ptr noundef %23) #6
  store ptr null, ptr %3, align 8
  br label %24

24:                                               ; preds = %22, %13
  br label %28

25:                                               ; preds = %7
  %26 = load ptr, ptr %3, align 8
  %27 = getelementptr inbounds %struct.OSQPVectorf_, ptr %26, i32 0, i32 0
  store ptr null, ptr %27, align 8
  br label %28

28:                                               ; preds = %25, %24
  br label %29

29:                                               ; preds = %28, %1
  %30 = load ptr, ptr %3, align 8
  ret ptr %30
}